target datalayout = "e-m:e-p270:32:32-p271:32:32-p272:64:64-i64:64-i128:128-f80:128-n8:16:32:64-S128"
target triple = "x86_64-pc-linux-gnu"

%"class.g2o::OptimizableGraph::Vertex" = type { %"class.g2o::HyperGraph::Vertex", %"class.g2o::HyperGraph::DataContainer", ptr, ptr, i32, i8, i8, i32, i32, [8 x i8], ptr }
%"class.g2o::HyperGraph::Vertex" = type { %"struct.g2o::HyperGraph::HyperGraphElement", i32, %"class.std::set" }
%"struct.g2o::HyperGraph::HyperGraphElement" = type { ptr }
%"class.std::set" = type { %"class.std::_Rb_tree" }
%"class.std::_Rb_tree" = type { %"struct.std::_Rb_tree<g2o::HyperGraph::Edge *, g2o::HyperGraph::Edge *, std::_Identity<g2o::HyperGraph::Edge *>, std::less<g2o::HyperGraph::Edge *>>::_Rb_tree_impl" }
%"struct.std::_Rb_tree<g2o::HyperGraph::Edge *, g2o::HyperGraph::Edge *, std::_Identity<g2o::HyperGraph::Edge *>, std::less<g2o::HyperGraph::Edge *>>::_Rb_tree_impl" = type { [8 x i8], %"struct.std::_Rb_tree_header" }
%"struct.std::_Rb_tree_header" = type { %"struct.std::_Rb_tree_node_base", i64 }
%"struct.std::_Rb_tree_node_base" = type { i32, ptr, ptr, ptr }
%"class.g2o::HyperGraph::DataContainer" = type { ptr, ptr }
%"class.std::vector" = type { %"struct.std::_Vector_base" }
%"struct.std::_Vector_base" = type { %"struct.std::_Vector_base<g2o::HyperGraph::Vertex *, std::allocator<g2o::HyperGraph::Vertex *>>::_Vector_impl" }
%"struct.std::_Vector_base<g2o::HyperGraph::Vertex *, std::allocator<g2o::HyperGraph::Vertex *>>::_Vector_impl" = type { %"struct.std::_Vector_base<g2o::HyperGraph::Vertex *, std::allocator<g2o::HyperGraph::Vertex *>>::_Vector_impl_data" }
%"struct.std::_Vector_base<g2o::HyperGraph::Vertex *, std::allocator<g2o::HyperGraph::Vertex *>>::_Vector_impl_data" = type { ptr, ptr, ptr }
%"class.g2o::HyperGraph::Edge" = type <{ %"struct.g2o::HyperGraph::HyperGraphElement", %"class.std::vector", i32, [4 x i8] }>

; Function Attrs: mustprogress nounwind uwtable
define linkonce_odr noundef ptr @_ZN3g2o16OptimizableGraph6Vertex5graphEv(ptr noundef nonnull align 8 dereferenceable(128) %0) #4 comdat align 2 {
  %2 = alloca ptr, align 8
  store ptr %0, ptr %2, align 8, !tbaa !14
  %3 = load ptr, ptr %2, align 8
  %4 = getelementptr inbounds nuw %"class.g2o::OptimizableGraph::Vertex", ptr %3, i32 0, i32 2
  %5 = load ptr, ptr %4, align 8, !tbaa !18
  ret ptr %5
}

; Function Attrs: mustprogress nounwind uwtable
define linkonce_odr noundef nonnull align 8 dereferenceable(8) ptr @_ZNSt6vectorIPN3g2o10HyperGraph6VertexESaIS3_EEixEm(ptr noundef nonnull align 8 dereferenceable(24) %0, i64 noundef %1) #4 comdat align 2 {
  %3 = alloca ptr, align 8
  %4 = alloca i64, align 8
  store ptr %0, ptr %3, align 8, !tbaa !99
  store i64 %1, ptr %4, align 8, !tbaa !103
  %5 = load ptr, ptr %3, align 8
  %6 = getelementptr inbounds nuw %"struct.std::_Vector_base", ptr %5, i32 0, i32 0
  %7 = getelementptr inbounds nuw %"struct.std::_Vector_base<g2o::HyperGraph::Vertex *, std::allocator<g2o::HyperGraph::Vertex *>>::_Vector_impl_data", ptr %6, i32 0, i32 0
  %8 = load ptr, ptr %7, align 8, !tbaa !102
  %9 = load i64, ptr %4, align 8, !tbaa !103
  %10 = getelementptr inbounds nuw ptr, ptr %8, i64 %9
  ret ptr %10
}

; Function Attrs: mustprogress nounwind uwtable
define linkonce_odr noundef i64 @_ZNKSt6vectorIPN3g2o10HyperGraph6VertexESaIS3_EE4sizeEv(ptr noundef nonnull align 8 dereferenceable(24) %0) #4 comdat align 2 {
  %2 = alloca ptr, align 8
  store ptr %0, ptr %2, align 8, !tbaa !99
  %3 = load ptr, ptr %2, align 8
  %4 = getelementptr inbounds nuw %"struct.std::_Vector_base", ptr %3, i32 0, i32 0
  %5 = getelementptr inbounds nuw %"struct.std::_Vector_base<g2o::HyperGraph::Vertex *, std::allocator<g2o::HyperGraph::Vertex *>>::_Vector_impl_data", ptr %4, i32 0, i32 1
  %6 = load ptr, ptr %5, align 8, !tbaa !101
  %7 = getelementptr inbounds nuw %"struct.std::_Vector_base", ptr %3, i32 0, i32 0
  %8 = getelementptr inbounds nuw %"struct.std::_Vector_base<g2o::HyperGraph::Vertex *, std::allocator<g2o::HyperGraph::Vertex *>>::_Vector_impl_data", ptr %7, i32 0, i32 0
  %9 = load ptr, ptr %8, align 8, !tbaa !102
  %10 = ptrtoint ptr %6 to i64
  %11 = ptrtoint ptr %9 to i64
  %12 = sub i64 %10, %11
  %13 = sdiv exact i64 %12, 8
  ret i64 %13
}

; Function Attrs: mustprogress uwtable
define noundef ptr @_ZN3g2o16OptimizableGraph4Edge5graphEv(ptr noundef nonnull align 8 dereferenceable(176) %0) #6 align 2 {
  %2 = alloca ptr, align 8
  %3 = alloca ptr, align 8
  %4 = alloca ptr, align 8
  %5 = alloca i32, align 4
  store ptr %0, ptr %3, align 8, !tbaa !55
  %6 = load ptr, ptr %3, align 8
  %7 = getelementptr inbounds nuw %"class.g2o::HyperGraph::Edge", ptr %6, i32 0, i32 1
  %8 = call noundef i64 @_ZNKSt6vectorIPN3g2o10HyperGraph6VertexESaIS3_EE4sizeEv(ptr noundef nonnull align 8 dereferenceable(24) %7) #3
  %9 = icmp ne i64 %8, 0
  br i1 %9, label %11, label %10

10:                                               ; preds = %1
  store ptr null, ptr %2, align 8
  br label %22

11:                                               ; preds = %1
  call void @llvm.lifetime.start.p0(i64 8, ptr %4) #3
  %12 = getelementptr inbounds nuw %"class.g2o::HyperGraph::Edge", ptr %6, i32 0, i32 1
  %13 = call noundef nonnull align 8 dereferenceable(8) ptr @_ZNSt6vectorIPN3g2o10HyperGraph6VertexESaIS3_EEixEm(ptr noundef nonnull align 8 dereferenceable(24) %12, i64 noundef 0) #3
  %14 = load ptr, ptr %13, align 8, !tbaa !97
  store ptr %14, ptr %4, align 8, !tbaa !14
  %15 = load ptr, ptr %4, align 8, !tbaa !14
  %16 = icmp ne ptr %15, null
  br i1 %16, label %18, label %17

17:                                               ; preds = %11
  store ptr null, ptr %2, align 8
  store i32 1, ptr %5, align 4
  br label %21

18:                                               ; preds = %11
  %19 = load ptr, ptr %4, align 8, !tbaa !14
  %20 = call noundef ptr @_ZN3g2o16OptimizableGraph6Vertex5graphEv(ptr noundef nonnull align 8 dereferenceable(128) %19)
  store ptr %20, ptr %2, align 8
  store i32 1, ptr %5, align 4
  br label %21

21:                                               ; preds = %18, %17
  call void @llvm.lifetime.end.p0(i64 8, ptr %4) #3
  br label %22

22:                                               ; preds = %21, %10
  %23 = load ptr, ptr %2, align 8
  ret ptr %23
}