; Function Attrs: mustprogress nofree norecurse nosync nounwind willreturn memory(read, inaccessiblemem: none) uwtable
define noundef ptr @_ZN3g2o16OptimizableGraph4Edge5graphEv(ptr noundef nonnull readonly align 8 captures(none) dereferenceable(176) %0) local_unnamed_addr #15 align 2 {
  %2 = getelementptr inbounds nuw i8, ptr %0, i64 8
  %3 = getelementptr inbounds nuw i8, ptr %0, i64 16
  %4 = load ptr, ptr %3, align 8, !tbaa !77
  %5 = load ptr, ptr %2, align 8, !tbaa !78
  %.not = icmp eq ptr %4, %5
  br i1 %.not, label %11, label %6

6:                                                ; preds = %1
  %7 = load ptr, ptr %5, align 8, !tbaa !79
  %.not5 = icmp eq ptr %7, null
  br i1 %.not5, label %11, label %8

8:                                                ; preds = %6
  %9 = getelementptr inbounds nuw i8, ptr %7, i64 80
  %10 = load ptr, ptr %9, align 8, !tbaa !81
  br label %11

11:                                               ; preds = %8, %6, %1
  %.0 = phi ptr [ null, %1 ], [ %10, %8 ], [ null, %6 ]
  ret ptr %.0
}